; Function Attrs: nounwind uwtable
define hidden void @Curl_psl_destroy(ptr noundef captures(none) %0) local_unnamed_addr #0 {
  %2 = load ptr, ptr %0, align 8, !tbaa !3
  %.not = icmp eq ptr %2, null
  br i1 %.not, label %9, label %3

3:                                                ; preds = %1
  %4 = getelementptr inbounds nuw i8, ptr %0, i64 16
  %5 = load i8, ptr %4, align 8, !tbaa !11, !range !12, !noundef !13
  %6 = trunc nuw i8 %5 to i1
  br i1 %6, label %7, label %8

7:                                                ; preds = %3
  tail call void @psl_free(ptr noundef nonnull %2) #3
  br label %8

8:                                                ; preds = %7, %3
  store ptr null, ptr %0, align 8, !tbaa !3
  store i8 0, ptr %4, align 8, !tbaa !11
  br label %9

9:                                                ; preds = %8, %1
  ret void
}